; Function Attrs: mustprogress uwtable
define hidden void @_ZN6Assimp15Q3BSPFileParser11getTexturesEv(ptr noundef nonnull readonly align 8 captures(none) dereferenceable(48) %0) local_unnamed_addr #0 align 2 {
  %2 = getelementptr inbounds nuw i8, ptr %0, i64 32
  %3 = load ptr, ptr %2, align 8
  %4 = getelementptr inbounds nuw i8, ptr %3, i64 120
  %5 = getelementptr inbounds nuw i8, ptr %3, i64 128
  %6 = load ptr, ptr %5, align 8
  %7 = load ptr, ptr %4, align 8
  %.not = icmp eq ptr %6, %7
  br i1 %.not, label %._crit_edge, label %.lr.ph

.lr.ph:                                           ; preds = %1
  %8 = getelementptr inbounds nuw i8, ptr %3, i64 24
  %9 = load ptr, ptr %8, align 8
  %10 = getelementptr inbounds nuw i8, ptr %9, i64 8
  %11 = load ptr, ptr %10, align 8
  %12 = load i32, ptr %11, align 4
  %13 = sext i32 %12 to i64
  %14 = getelementptr inbounds nuw i8, ptr %0, i64 8
  br label %15

._crit_edge:                                      ; preds = %15, %1
  ret void

15:                                               ; preds = %.lr.ph, %15
  %16 = phi ptr [ %4, %.lr.ph ], [ %25, %15 ]
  %.09 = phi i64 [ %13, %.lr.ph ], [ %22, %15 ]
  %.078 = phi i64 [ 0, %.lr.ph ], [ %23, %15 ]
  %17 = tail call noalias noundef nonnull dereferenceable(72) ptr @_Znwm(i64 noundef 72) #13
  %18 = load ptr, ptr %14, align 8
  %19 = getelementptr inbounds nuw i8, ptr %18, i64 %.09
  tail call void @llvm.memcpy.p0.p0.i64(ptr noundef nonnull align 4 dereferenceable(72) %17, ptr noundef nonnull align 1 dereferenceable(72) %19, i64 72, i1 false)
  %20 = load ptr, ptr %16, align 8
  %21 = getelementptr inbounds nuw ptr, ptr %20, i64 %.078
  store ptr %17, ptr %21, align 8
  %22 = add i64 %.09, 72
  %23 = add nuw i64 %.078, 1
  %24 = load ptr, ptr %2, align 8
  %25 = getelementptr inbounds nuw i8, ptr %24, i64 120
  %26 = getelementptr inbounds nuw i8, ptr %24, i64 128
  %27 = load ptr, ptr %26, align 8
  %28 = load ptr, ptr %25, align 8
  %29 = ptrtoint ptr %27 to i64
  %30 = ptrtoint ptr %28 to i64
  %31 = sub i64 %29, %30
  %32 = ashr exact i64 %31, 3
  %33 = icmp ult i64 %23, %32
  br i1 %33, label %15, label %._crit_edge, !llvm.loop !7
}